target datalayout = "e-m:e-p270:32:32-p271:32:32-p272:64:64-i64:64-i128:128-f80:128-n8:16:32:64-S128"
target triple = "x86_64-pc-linux-gnu"

%struct.darktable_t = type { %struct.dt_codepath_t, i32, i32, ptr, ptr, ptr, ptr, ptr, ptr, ptr, ptr, ptr, ptr, ptr, ptr, ptr, ptr, ptr, ptr, ptr, ptr, ptr, ptr, ptr, ptr, ptr, ptr, ptr, ptr, ptr, [64 x %struct.dt_pthread_mutex_t], %struct.dt_pthread_mutex_t, %struct.dt_pthread_mutex_t, %struct.dt_pthread_mutex_t, %struct.dt_pthread_mutex_t, %struct.dt_pthread_mutex_t, ptr, ptr, ptr, ptr, ptr, ptr, ptr, ptr, ptr, ptr, ptr, ptr, ptr, %struct.dt_lua_state_t, ptr, double, ptr, i32, [47 x i32], i32, i32, ptr, ptr, %struct.dt_sys_resources_t, %struct.dt_backthumb_t, %struct.dt_gimp_t }
%struct.dt_codepath_t = type { i8, [3 x i8] }
%struct.dt_pthread_mutex_t = type { %union.pthread_mutex_t }
%union.pthread_mutex_t = type { %struct.__pthread_mutex_s }
%struct.__pthread_mutex_s = type { i32, i32, i32, i32, i32, i16, i16, %struct.__pthread_internal_list }
%struct.__pthread_internal_list = type { ptr, ptr }
%struct.dt_lua_state_t = type { i32 }
%struct.dt_sys_resources_t = type { i64, i64, ptr, ptr, i32 }
%struct.dt_backthumb_t = type { double, double, i32, i32, i32, i32 }
%struct.dt_gimp_t = type { i32, ptr, ptr, i32, i32 }
%struct._GdkRGBA = type { double, double, double, double }
%struct.dt_gui_gtk_t = type { ptr, %struct.dt_gui_widgets_t, %struct.dt_gui_scrollbars_t, i32, ptr, i32, [39 x %struct._GdkRGBA], i32, i32, i32, i32, i32, double, double, double, double, ptr, double, double, double, double, i32, i32, [4096 x i8], i32, i32, i32, %struct.dt_pthread_mutex_t }
%struct.dt_gui_widgets_t = type { ptr, ptr, ptr, ptr, i32, i32, i32 }
%struct.dt_gui_scrollbars_t = type { ptr, ptr, i32 }
%struct.dt_ui_t = type { [16 x ptr], [6 x ptr], ptr, ptr, ptr, ptr, ptr, ptr, ptr }
%struct.dt_control_t = type { i32, ptr, %struct.dt_action_t, %struct.dt_action_t, %struct.dt_action_t, %struct.dt_action_t, %struct.dt_action_t, %struct.dt_action_t, %struct.dt_action_t, %struct.dt_action_t, %struct.dt_action_t, %struct.dt_action_t, %struct.dt_action_t, ptr, ptr, ptr, i32, ptr, i32, i32, ptr, ptr, [256 x i8], i32, double, i32, i32, i64, i32, i32, i32, double, double, i32, i32, i32, i32, i32, i32, [8 x [1000 x i8]], i32, i32, %struct.dt_pthread_mutex_t, i32, i32, [2 x [300 x i8]], i32, i32, %struct.dt_pthread_mutex_t, %struct.dt_pthread_mutex_t, %struct.dt_pthread_mutex_t, double, i32, i32, i32, %struct.dt_pthread_mutex_t, %struct.dt_pthread_mutex_t, %union.pthread_cond_t, i32, ptr, i64, i64, ptr, [5 x ptr], [5 x i64], %struct.dt_pthread_mutex_t, [3 x ptr], [3 x i8], [3 x i64], %struct.anon.0, %struct.anon.2 }
%struct.dt_action_t = type { i32, ptr, ptr, ptr, ptr, ptr }
%union.pthread_cond_t = type { %struct.__pthread_cond_s }
%struct.__pthread_cond_s = type { %union.__atomic_wide_counter, %union.__atomic_wide_counter, [2 x i32], [2 x i32], i32, i32, [2 x i32] }
%union.__atomic_wide_counter = type { i64 }
%struct.anon.0 = type { ptr, i64, i64, double, %struct.dt_pthread_mutex_t, %struct.anon.1 }
%struct.anon.1 = type { ptr, ptr, ptr, ptr, ptr, ptr }
%struct.anon.2 = type { %struct.anon.3 }
%struct.anon.3 = type { ptr, ptr }

@darktable = external global %struct.darktable_t, align 8
@.str.240 = private unnamed_addr constant [2 x i8] c"\0A\00", align 1

; Function Attrs: inlinehint nounwind uwtable
define internal i32 @dt_pthread_mutex_unlock(ptr noundef %0) #4 {
  %2 = alloca ptr, align 8
  store ptr %0, ptr %2, align 8, !tbaa !74
  %3 = load ptr, ptr %2, align 8, !tbaa !74
  %4 = getelementptr inbounds nuw %struct.dt_pthread_mutex_t, ptr %3, i32 0, i32 0
  %5 = call i32 @pthread_mutex_unlock(ptr noundef %4) #15
  ret i32 %5
}

; Function Attrs: nounwind uwtable
define ptr @dt_ui_center_base(ptr noundef %0) #0 {
  %2 = alloca ptr, align 8
  store ptr %0, ptr %2, align 8, !tbaa !76
  %3 = load ptr, ptr %2, align 8, !tbaa !76
  %4 = getelementptr inbounds nuw %struct.dt_ui_t, ptr %3, i32 0, i32 3
  %5 = load ptr, ptr %4, align 8, !tbaa !250
  ret ptr %5
}

; Function Attrs: inlinehint nounwind uwtable
define internal i32 @dt_pthread_mutex_lock(ptr noundef %0) #4 {
  %2 = alloca ptr, align 8
  store ptr %0, ptr %2, align 8, !tbaa !74
  %3 = load ptr, ptr %2, align 8, !tbaa !74
  %4 = getelementptr inbounds nuw %struct.dt_pthread_mutex_t, ptr %3, i32 0, i32 0
  %5 = call i32 @pthread_mutex_lock(ptr noundef %4) #15
  ret i32 %5
}

; Function Attrs: nounwind uwtable
define internal void @_ui_toast_redraw_callback(ptr noundef %0, ptr noundef %1) #0 {
  %3 = alloca ptr, align 8
  %4 = alloca ptr, align 8
  %5 = alloca ptr, align 8
  %6 = alloca i32, align 4
  %7 = alloca ptr, align 8
  %8 = alloca i32, align 4
  %9 = alloca i32, align 4
  store ptr %0, ptr %3, align 8, !tbaa !99
  store ptr %1, ptr %4, align 8, !tbaa !6
  call void @llvm.lifetime.start.p0(i64 8, ptr %5) #15
  %10 = load ptr, ptr getelementptr inbounds nuw (%struct.darktable_t, ptr @darktable, i32 0, i32 12), align 8, !tbaa !130
  store ptr %10, ptr %5, align 8, !tbaa !373
  %11 = load ptr, ptr getelementptr inbounds nuw (%struct.darktable_t, ptr @darktable, i32 0, i32 12), align 8, !tbaa !130
  %12 = getelementptr inbounds nuw %struct.dt_control_t, ptr %11, i32 0, i32 48
  %13 = call i32 @dt_pthread_mutex_lock(ptr noundef %12)
  %14 = load ptr, ptr %5, align 8, !tbaa !373
  %15 = getelementptr inbounds nuw %struct.dt_control_t, ptr %14, i32 0, i32 44
  %16 = load i32, ptr %15, align 4, !tbaa !376
  %17 = load ptr, ptr %5, align 8, !tbaa !373
  %18 = getelementptr inbounds nuw %struct.dt_control_t, ptr %17, i32 0, i32 43
  %19 = load i32, ptr %18, align 8, !tbaa !377
  %20 = icmp ne i32 %16, %19
  br i1 %20, label %21, label %107

21:                                               ; preds = %2
  call void @llvm.lifetime.start.p0(i64 4, ptr %6) #15
  %22 = load ptr, ptr %5, align 8, !tbaa !373
  %23 = getelementptr inbounds nuw %struct.dt_control_t, ptr %22, i32 0, i32 44
  %24 = load i32, ptr %23, align 4, !tbaa !376
  %25 = load ptr, ptr %5, align 8, !tbaa !373
  %26 = getelementptr inbounds nuw %struct.dt_control_t, ptr %25, i32 0, i32 43
  %27 = load i32, ptr %26, align 8, !tbaa !377
  %28 = sub nsw i32 %27, 1
  %29 = icmp sgt i32 %24, %28
  br i1 %29, label %30, label %34

30:                                               ; preds = %21
  %31 = load ptr, ptr %5, align 8, !tbaa !373
  %32 = getelementptr inbounds nuw %struct.dt_control_t, ptr %31, i32 0, i32 44
  %33 = load i32, ptr %32, align 4, !tbaa !376
  br label %39

34:                                               ; preds = %21
  %35 = load ptr, ptr %5, align 8, !tbaa !373
  %36 = getelementptr inbounds nuw %struct.dt_control_t, ptr %35, i32 0, i32 43
  %37 = load i32, ptr %36, align 8, !tbaa !377
  %38 = sub nsw i32 %37, 1
  br label %39

39:                                               ; preds = %34, %30
  %40 = phi i32 [ %33, %30 ], [ %38, %34 ]
  store i32 %40, ptr %6, align 4, !tbaa !17
  call void @llvm.lifetime.start.p0(i64 8, ptr %7) #15
  %41 = call noalias ptr @g_try_malloc(i64 noundef 8000) #17
  store ptr %41, ptr %7, align 8, !tbaa !11
  %42 = load ptr, ptr %7, align 8, !tbaa !11
  %43 = icmp ne ptr %42, null
  br i1 %43, label %44, label %84

44:                                               ; preds = %39
  %45 = load ptr, ptr %7, align 8, !tbaa !11
  %46 = getelementptr inbounds i8, ptr %45, i64 0
  store i8 0, ptr %46, align 1, !tbaa !117
  call void @llvm.lifetime.start.p0(i64 4, ptr %8) #15
  %47 = load i32, ptr %6, align 4, !tbaa !17
  store i32 %47, ptr %8, align 4, !tbaa !17
  br label %48

48:                                               ; preds = %75, %44
  %49 = load i32, ptr %8, align 4, !tbaa !17
  %50 = load ptr, ptr %5, align 8, !tbaa !373
  %51 = getelementptr inbounds nuw %struct.dt_control_t, ptr %50, i32 0, i32 43
  %52 = load i32, ptr %51, align 8, !tbaa !377
  %53 = icmp slt i32 %49, %52
  br i1 %53, label %55, label %54

54:                                               ; preds = %48
  call void @llvm.lifetime.end.p0(i64 4, ptr %8) #15
  br label %78

55:                                               ; preds = %48
  %56 = load ptr, ptr %7, align 8, !tbaa !11
  %57 = load ptr, ptr getelementptr inbounds nuw (%struct.darktable_t, ptr @darktable, i32 0, i32 12), align 8, !tbaa !130
  %58 = getelementptr inbounds nuw %struct.dt_control_t, ptr %57, i32 0, i32 45
  %59 = load i32, ptr %8, align 4, !tbaa !17
  %60 = and i32 %59, 1
  %61 = sext i32 %60 to i64
  %62 = getelementptr inbounds [2 x [300 x i8]], ptr %58, i64 0, i64 %61
  %63 = getelementptr inbounds [300 x i8], ptr %62, i64 0, i64 0
  %64 = call i64 @g_strlcat(ptr noundef %56, ptr noundef %63, i64 noundef 8000)
  %65 = load i32, ptr %8, align 4, !tbaa !17
  %66 = load ptr, ptr %5, align 8, !tbaa !373
  %67 = getelementptr inbounds nuw %struct.dt_control_t, ptr %66, i32 0, i32 43
  %68 = load i32, ptr %67, align 8, !tbaa !377
  %69 = sub nsw i32 %68, 1
  %70 = icmp ne i32 %65, %69
  br i1 %70, label %71, label %74

71:                                               ; preds = %55
  %72 = load ptr, ptr %7, align 8, !tbaa !11
  %73 = call i64 @g_strlcat(ptr noundef %72, ptr noundef @.str.240, i64 noundef 8000)
  br label %74

74:                                               ; preds = %71, %55
  br label %75

75:                                               ; preds = %74
  %76 = load i32, ptr %8, align 4, !tbaa !17
  %77 = add nsw i32 %76, 1
  store i32 %77, ptr %8, align 4, !tbaa !17
  br label %48

78:                                               ; preds = %54
  %79 = load ptr, ptr %4, align 8, !tbaa !6
  %80 = call i64 @gtk_label_get_type() #16
  %81 = call ptr @g_type_check_instance_cast(ptr noundef %79, i64 noundef %80)
  %82 = load ptr, ptr %7, align 8, !tbaa !11
  call void @gtk_label_set_markup(ptr noundef %81, ptr noundef %82)
  %83 = load ptr, ptr %7, align 8, !tbaa !11
  call void @g_free(ptr noundef %83)
  br label %84

84:                                               ; preds = %78, %39
  %85 = load ptr, ptr %4, align 8, !tbaa !6
  %86 = call i32 @gtk_widget_get_visible(ptr noundef %85)
  %87 = icmp ne i32 %86, 0
  br i1 %87, label %106, label %88

88:                                               ; preds = %84
  call void @llvm.lifetime.start.p0(i64 4, ptr %9) #15
  %89 = load ptr, ptr getelementptr inbounds nuw (%struct.darktable_t, ptr @darktable, i32 0, i32 14), align 8, !tbaa !24
  %90 = getelementptr inbounds nuw %struct.dt_gui_gtk_t, ptr %89, i32 0, i32 0
  %91 = load ptr, ptr %90, align 8, !tbaa !72
  %92 = call ptr @dt_ui_center_base(ptr noundef %91)
  %93 = call i32 @gtk_widget_get_allocated_height(ptr noundef %92)
  store i32 %93, ptr %9, align 4, !tbaa !17
  %94 = load ptr, ptr %4, align 8, !tbaa !6
  %95 = call ptr @gtk_widget_get_parent(ptr noundef %94)
  %96 = load i32, ptr %9, align 4, !tbaa !17
  %97 = sitofp i32 %96 to double
  %98 = fmul reassoc nsz arcp contract afn double 1.500000e-01, %97
  %99 = load ptr, ptr getelementptr inbounds nuw (%struct.darktable_t, ptr @darktable, i32 0, i32 14), align 8, !tbaa !24
  %100 = getelementptr inbounds nuw %struct.dt_gui_gtk_t, ptr %99, i32 0, i32 18
  %101 = load double, ptr %100, align 8, !tbaa !144
  %102 = fmul reassoc nsz arcp contract afn double 1.000000e+01, %101
  %103 = fsub reassoc nsz arcp contract afn double %98, %102
  %104 = fptosi double %103 to i32
  call void @gtk_widget_set_margin_bottom(ptr noundef %95, i32 noundef %104)
  %105 = load ptr, ptr %4, align 8, !tbaa !6
  call void @gtk_widget_show(ptr noundef %105)
  call void @llvm.lifetime.end.p0(i64 4, ptr %9) #15
  br label %106

106:                                              ; preds = %88, %84
  call void @llvm.lifetime.end.p0(i64 8, ptr %7) #15
  call void @llvm.lifetime.end.p0(i64 4, ptr %6) #15
  br label %114

107:                                              ; preds = %2
  %108 = load ptr, ptr %4, align 8, !tbaa !6
  %109 = call i32 @gtk_widget_get_visible(ptr noundef %108)
  %110 = icmp ne i32 %109, 0
  br i1 %110, label %111, label %113

111:                                              ; preds = %107
  %112 = load ptr, ptr %4, align 8, !tbaa !6
  call void @gtk_widget_hide(ptr noundef %112)
  br label %113

113:                                              ; preds = %111, %107
  br label %114

114:                                              ; preds = %113, %106
  %115 = load ptr, ptr getelementptr inbounds nuw (%struct.darktable_t, ptr @darktable, i32 0, i32 12), align 8, !tbaa !130
  %116 = getelementptr inbounds nuw %struct.dt_control_t, ptr %115, i32 0, i32 48
  %117 = call i32 @dt_pthread_mutex_unlock(ptr noundef %116)
  call void @llvm.lifetime.end.p0(i64 8, ptr %5) #15
  ret void
}