; Function Attrs: nounwind uwtable
define internal void @_ui_toast_redraw_callback(ptr readnone captures(none) %0, ptr noundef %1) #0 {
  %3 = load ptr, ptr getelementptr inbounds nuw (i8, ptr @darktable, i64 88), align 8, !tbaa !120
  %4 = getelementptr inbounds nuw i8, ptr %3, i64 9616
  %5 = tail call i32 @pthread_mutex_lock(ptr noundef nonnull %4) #18
  %6 = getelementptr inbounds nuw i8, ptr %3, i64 9004
  %7 = load i32, ptr %6, align 4, !tbaa !282
  %8 = getelementptr inbounds nuw i8, ptr %3, i64 9000
  %9 = load i32, ptr %8, align 8, !tbaa !283
  %.not = icmp eq i32 %7, %9
  br i1 %.not, label %50, label %10

10:                                               ; preds = %2
  %11 = tail call noalias dereferenceable_or_null(8000) ptr @g_try_malloc(i64 noundef 8000) #21
  %.not31 = icmp eq ptr %11, null
  br i1 %.not31, label %33, label %12

12:                                               ; preds = %10
  %.not30 = icmp slt i32 %7, %9
  %13 = add nsw i32 %9, -1
  %14 = select i1 %.not30, i32 %13, i32 %7
  store i8 0, ptr %11, align 1, !tbaa !94
  %15 = load i32, ptr %8, align 8, !tbaa !283
  %16 = icmp slt i32 %14, %15
  br i1 %16, label %.lr.ph, label %._crit_edge

._crit_edge:                                      ; preds = %29, %12
  %17 = tail call i64 @gtk_label_get_type() #19
  %18 = tail call ptr @g_type_check_instance_cast(ptr noundef %1, i64 noundef %17) #18
  tail call void @gtk_label_set_markup(ptr noundef %18, ptr noundef nonnull %11) #18
  tail call void @g_free(ptr noundef nonnull %11) #18
  br label %33

.lr.ph:                                           ; preds = %12, %29
  %.034 = phi i32 [ %31, %29 ], [ %14, %12 ]
  %19 = load ptr, ptr getelementptr inbounds nuw (i8, ptr @darktable, i64 88), align 8, !tbaa !120
  %20 = getelementptr inbounds nuw i8, ptr %19, i64 9008
  %21 = and i32 %.034, 1
  %22 = zext nneg i32 %21 to i64
  %23 = getelementptr inbounds nuw [2 x [300 x i8]], ptr %20, i64 0, i64 %22
  %24 = tail call i64 @g_strlcat(ptr noundef nonnull %11, ptr noundef nonnull %23, i64 noundef 8000) #18
  %25 = load i32, ptr %8, align 8, !tbaa !283
  %26 = add nsw i32 %25, -1
  %.not33 = icmp eq i32 %.034, %26
  br i1 %.not33, label %29, label %27

27:                                               ; preds = %.lr.ph
  %28 = tail call i64 @g_strlcat(ptr noundef nonnull %11, ptr noundef nonnull @.str.240, i64 noundef 8000) #18
  %.pre = load i32, ptr %8, align 8, !tbaa !283
  br label %29

29:                                               ; preds = %.lr.ph, %27
  %30 = phi i32 [ %25, %.lr.ph ], [ %.pre, %27 ]
  %31 = add nsw i32 %.034, 1
  %32 = icmp slt i32 %31, %30
  br i1 %32, label %.lr.ph, label %._crit_edge

33:                                               ; preds = %._crit_edge, %10
  %34 = tail call i32 @gtk_widget_get_visible(ptr noundef %1) #18
  %.not32 = icmp eq i32 %34, 0
  br i1 %.not32, label %35, label %53

35:                                               ; preds = %33
  %36 = load ptr, ptr getelementptr inbounds nuw (i8, ptr @darktable, i64 104), align 8, !tbaa !15
  %37 = load ptr, ptr %36, align 8, !tbaa !63
  %38 = getelementptr inbounds nuw i8, ptr %37, i64 184
  %39 = load ptr, ptr %38, align 8, !tbaa !113
  %40 = tail call i32 @gtk_widget_get_allocated_height(ptr noundef %39) #18
  %41 = tail call ptr @gtk_widget_get_parent(ptr noundef %1) #18
  %42 = sitofp i32 %40 to double
  %43 = fmul reassoc nsz arcp contract afn double %42, 1.500000e-01
  %44 = load ptr, ptr getelementptr inbounds nuw (i8, ptr @darktable, i64 104), align 8, !tbaa !15
  %45 = getelementptr inbounds nuw i8, ptr %44, i64 1424
  %46 = load double, ptr %45, align 8, !tbaa !105
  %47 = fmul reassoc nsz arcp contract afn double %46, 1.000000e+01
  %48 = fsub reassoc nsz arcp contract afn double %43, %47
  %49 = fptosi double %48 to i32
  tail call void @gtk_widget_set_margin_bottom(ptr noundef %41, i32 noundef %49) #18
  tail call void @gtk_widget_show(ptr noundef %1) #18
  br label %53

50:                                               ; preds = %2
  %51 = tail call i32 @gtk_widget_get_visible(ptr noundef %1) #18
  %.not29 = icmp eq i32 %51, 0
  br i1 %.not29, label %53, label %52

52:                                               ; preds = %50
  tail call void @gtk_widget_hide(ptr noundef %1) #18
  br label %53

53:                                               ; preds = %33, %35, %50, %52
  %54 = load ptr, ptr getelementptr inbounds nuw (i8, ptr @darktable, i64 88), align 8, !tbaa !120
  %55 = getelementptr inbounds nuw i8, ptr %54, i64 9616
  %56 = tail call i32 @pthread_mutex_unlock(ptr noundef nonnull %55) #18
  ret void
}